target datalayout = "e-m:e-p270:32:32-p271:32:32-p272:64:64-i64:64-i128:128-f80:128-n8:16:32:64-S128"
target triple = "x86_64-pc-linux-gnu"

%struct.lxb_html_tree_res_attr_adjust_foreign_t = type { ptr, ptr, ptr, i64, i64, i64 }
%struct.lxb_dom_document = type { %struct.lxb_dom_node, i32, i32, ptr, ptr, ptr, ptr, ptr, ptr, ptr, ptr, ptr, ptr, ptr, ptr, ptr, ptr, ptr, ptr, ptr, i8, i8, i8 }
%struct.lxb_dom_node = type { %struct.lxb_dom_event_target, i64, i64, i64, ptr, ptr, ptr, ptr, ptr, ptr, ptr, i32, i64 }
%struct.lxb_dom_event_target = type { ptr }
%struct.lxb_dom_attr = type { %struct.lxb_dom_node, i64, i64, ptr, ptr, ptr, ptr }
%struct.lxb_dom_attr_data_t = type { %struct.lexbor_hash_entry, i64, i64, i8 }
%struct.lexbor_hash_entry = type { %union.anon, i64, ptr }
%union.anon = type { ptr, [16 x i8] }
%struct.lxb_ns_prefix_data_t = type { %struct.lexbor_hash_entry, i64, i64, i8 }

; Function Attrs: nounwind uwtable
define internal ptr @lexbor_hash_entry_str(ptr noundef %0) #0 {
  %2 = alloca ptr, align 8
  %3 = alloca ptr, align 8
  store ptr %0, ptr %3, align 8
  %4 = load ptr, ptr %3, align 8
  %5 = getelementptr inbounds %struct.lexbor_hash_entry, ptr %4, i32 0, i32 1
  %6 = load i64, ptr %5, align 8
  %7 = icmp ule i64 %6, 16
  br i1 %7, label %8, label %12

8:                                                ; preds = %1
  %9 = load ptr, ptr %3, align 8
  %10 = getelementptr inbounds %struct.lexbor_hash_entry, ptr %9, i32 0, i32 0
  %11 = getelementptr inbounds [17 x i8], ptr %10, i64 0, i64 0
  store ptr %11, ptr %2, align 8
  br label %16

12:                                               ; preds = %1
  %13 = load ptr, ptr %3, align 8
  %14 = getelementptr inbounds %struct.lexbor_hash_entry, ptr %13, i32 0, i32 0
  %15 = load ptr, ptr %14, align 8
  store ptr %15, ptr %2, align 8
  br label %16

16:                                               ; preds = %12, %8
  %17 = load ptr, ptr %2, align 8
  ret ptr %17
}

; Function Attrs: nounwind uwtable
define hidden i32 @lxb_html_tree_adjust_foreign_attributes(ptr noundef %0, ptr noundef %1, ptr noundef %2) #0 {
  %4 = alloca i32, align 4
  %5 = alloca ptr, align 8
  %6 = alloca ptr, align 8
  %7 = alloca ptr, align 8
  %8 = alloca i64, align 8
  %9 = alloca ptr, align 8
  %10 = alloca ptr, align 8
  %11 = alloca ptr, align 8
  %12 = alloca ptr, align 8
  %13 = alloca ptr, align 8
  %14 = alloca ptr, align 8
  %15 = alloca i64, align 8
  %16 = alloca i64, align 8
  store ptr %0, ptr %5, align 8
  store ptr %1, ptr %6, align 8
  store ptr %2, ptr %7, align 8
  store i64 11, ptr %15, align 8
  %17 = load ptr, ptr %6, align 8
  %18 = getelementptr inbounds %struct.lxb_dom_attr, ptr %17, i32 0, i32 0
  %19 = getelementptr inbounds %struct.lxb_dom_node, ptr %18, i32 0, i32 4
  %20 = load ptr, ptr %19, align 8
  %21 = getelementptr inbounds %struct.lxb_dom_document, ptr %20, i32 0, i32 15
  %22 = load ptr, ptr %21, align 8
  store ptr %22, ptr %9, align 8
  %23 = load ptr, ptr %6, align 8
  %24 = getelementptr inbounds %struct.lxb_dom_attr, ptr %23, i32 0, i32 0
  %25 = getelementptr inbounds %struct.lxb_dom_node, ptr %24, i32 0, i32 4
  %26 = load ptr, ptr %25, align 8
  %27 = getelementptr inbounds %struct.lxb_dom_document, ptr %26, i32 0, i32 16
  %28 = load ptr, ptr %27, align 8
  store ptr %28, ptr %10, align 8
  %29 = load ptr, ptr %9, align 8
  %30 = load ptr, ptr %6, align 8
  %31 = getelementptr inbounds %struct.lxb_dom_attr, ptr %30, i32 0, i32 0
  %32 = getelementptr inbounds %struct.lxb_dom_node, ptr %31, i32 0, i32 1
  %33 = load i64, ptr %32, align 8
  %34 = call ptr @lxb_dom_attr_data_by_id(ptr noundef %29, i64 noundef %33)
  store ptr %34, ptr %13, align 8
  store i64 0, ptr %16, align 8
  br label %35

35:                                               ; preds = %131, %3
  %36 = load i64, ptr %16, align 8
  %37 = load i64, ptr %15, align 8
  %38 = icmp ult i64 %36, %37
  br i1 %38, label %39, label %134

39:                                               ; preds = %35
  %40 = load i64, ptr %16, align 8
  %41 = getelementptr inbounds [11 x %struct.lxb_html_tree_res_attr_adjust_foreign_t], ptr @lxb_html_tree_res_attr_adjust_foreign_map, i64 0, i64 %40
  store ptr %41, ptr %14, align 8
  %42 = load ptr, ptr %13, align 8
  %43 = getelementptr inbounds %struct.lxb_dom_attr_data_t, ptr %42, i32 0, i32 0
  %44 = getelementptr inbounds %struct.lexbor_hash_entry, ptr %43, i32 0, i32 1
  %45 = load i64, ptr %44, align 8
  %46 = load ptr, ptr %14, align 8
  %47 = getelementptr inbounds %struct.lxb_html_tree_res_attr_adjust_foreign_t, ptr %46, i32 0, i32 3
  %48 = load i64, ptr %47, align 8
  %49 = icmp eq i64 %45, %48
  br i1 %49, label %50, label %130

50:                                               ; preds = %39
  %51 = load ptr, ptr %13, align 8
  %52 = getelementptr inbounds %struct.lxb_dom_attr_data_t, ptr %51, i32 0, i32 0
  %53 = call ptr @lexbor_hash_entry_str(ptr noundef %52)
  %54 = load ptr, ptr %14, align 8
  %55 = getelementptr inbounds %struct.lxb_html_tree_res_attr_adjust_foreign_t, ptr %54, i32 0, i32 0
  %56 = load ptr, ptr %55, align 8
  %57 = call zeroext i1 @lexbor_str_data_cmp(ptr noundef %53, ptr noundef %56)
  br i1 %57, label %58, label %130

58:                                               ; preds = %50
  %59 = load ptr, ptr %14, align 8
  %60 = getelementptr inbounds %struct.lxb_html_tree_res_attr_adjust_foreign_t, ptr %59, i32 0, i32 4
  %61 = load i64, ptr %60, align 8
  %62 = icmp ne i64 %61, 0
  br i1 %62, label %63, label %123

63:                                               ; preds = %58
  %64 = load ptr, ptr %9, align 8
  %65 = load ptr, ptr %14, align 8
  %66 = getelementptr inbounds %struct.lxb_html_tree_res_attr_adjust_foreign_t, ptr %65, i32 0, i32 0
  %67 = load ptr, ptr %66, align 8
  %68 = load ptr, ptr %14, align 8
  %69 = getelementptr inbounds %struct.lxb_html_tree_res_attr_adjust_foreign_t, ptr %68, i32 0, i32 3
  %70 = load i64, ptr %69, align 8
  %71 = call ptr @lxb_dom_attr_qualified_name_append(ptr noundef %64, ptr noundef %67, i64 noundef %70)
  store ptr %71, ptr %13, align 8
  %72 = load ptr, ptr %13, align 8
  %73 = icmp eq ptr %72, null
  br i1 %73, label %74, label %75

74:                                               ; preds = %63
  store i32 1, ptr %4, align 4
  br label %135

75:                                               ; preds = %63
  %76 = load ptr, ptr %13, align 8
  %77 = getelementptr inbounds %struct.lxb_dom_attr_data_t, ptr %76, i32 0, i32 1
  %78 = load i64, ptr %77, align 8
  %79 = load ptr, ptr %6, align 8
  %80 = getelementptr inbounds %struct.lxb_dom_attr, ptr %79, i32 0, i32 2
  store i64 %78, ptr %80, align 8
  %81 = load ptr, ptr %14, align 8
  %82 = getelementptr inbounds %struct.lxb_html_tree_res_attr_adjust_foreign_t, ptr %81, i32 0, i32 3
  %83 = load i64, ptr %82, align 8
  %84 = load ptr, ptr %14, align 8
  %85 = getelementptr inbounds %struct.lxb_html_tree_res_attr_adjust_foreign_t, ptr %84, i32 0, i32 4
  %86 = load i64, ptr %85, align 8
  %87 = sub i64 %83, %86
  %88 = sub i64 %87, 1
  store i64 %88, ptr %8, align 8
  %89 = load ptr, ptr %9, align 8
  %90 = load ptr, ptr %14, align 8
  %91 = getelementptr inbounds %struct.lxb_html_tree_res_attr_adjust_foreign_t, ptr %90, i32 0, i32 2
  %92 = load ptr, ptr %91, align 8
  %93 = load i64, ptr %8, align 8
  %94 = call ptr @lxb_dom_attr_local_name_append(ptr noundef %89, ptr noundef %92, i64 noundef %93)
  store ptr %94, ptr %11, align 8
  %95 = load ptr, ptr %11, align 8
  %96 = icmp eq ptr %95, null
  br i1 %96, label %97, label %98

97:                                               ; preds = %75
  store i32 1, ptr %4, align 4
  br label %135

98:                                               ; preds = %75
  %99 = load ptr, ptr %11, align 8
  %100 = getelementptr inbounds %struct.lxb_dom_attr_data_t, ptr %99, i32 0, i32 1
  %101 = load i64, ptr %100, align 8
  %102 = load ptr, ptr %6, align 8
  %103 = getelementptr inbounds %struct.lxb_dom_attr, ptr %102, i32 0, i32 0
  %104 = getelementptr inbounds %struct.lxb_dom_node, ptr %103, i32 0, i32 1
  store i64 %101, ptr %104, align 8
  %105 = load ptr, ptr %10, align 8
  %106 = load ptr, ptr %14, align 8
  %107 = getelementptr inbounds %struct.lxb_html_tree_res_attr_adjust_foreign_t, ptr %106, i32 0, i32 1
  %108 = load ptr, ptr %107, align 8
  %109 = load ptr, ptr %14, align 8
  %110 = getelementptr inbounds %struct.lxb_html_tree_res_attr_adjust_foreign_t, ptr %109, i32 0, i32 4
  %111 = load i64, ptr %110, align 8
  %112 = call ptr @lxb_ns_prefix_append(ptr noundef %105, ptr noundef %108, i64 noundef %111)
  store ptr %112, ptr %12, align 8
  %113 = load ptr, ptr %12, align 8
  %114 = icmp eq ptr %113, null
  br i1 %114, label %115, label %116

115:                                              ; preds = %98
  store i32 1, ptr %4, align 4
  br label %135

116:                                              ; preds = %98
  %117 = load ptr, ptr %12, align 8
  %118 = getelementptr inbounds %struct.lxb_ns_prefix_data_t, ptr %117, i32 0, i32 1
  %119 = load i64, ptr %118, align 8
  %120 = load ptr, ptr %6, align 8
  %121 = getelementptr inbounds %struct.lxb_dom_attr, ptr %120, i32 0, i32 0
  %122 = getelementptr inbounds %struct.lxb_dom_node, ptr %121, i32 0, i32 2
  store i64 %119, ptr %122, align 8
  br label %123

123:                                              ; preds = %116, %58
  %124 = load ptr, ptr %14, align 8
  %125 = getelementptr inbounds %struct.lxb_html_tree_res_attr_adjust_foreign_t, ptr %124, i32 0, i32 5
  %126 = load i64, ptr %125, align 8
  %127 = load ptr, ptr %6, align 8
  %128 = getelementptr inbounds %struct.lxb_dom_attr, ptr %127, i32 0, i32 0
  %129 = getelementptr inbounds %struct.lxb_dom_node, ptr %128, i32 0, i32 3
  store i64 %126, ptr %129, align 8
  store i32 0, ptr %4, align 4
  br label %135

130:                                              ; preds = %50, %39
  br label %131

131:                                              ; preds = %130
  %132 = load i64, ptr %16, align 8
  %133 = add i64 %132, 1
  store i64 %133, ptr %16, align 8
  br label %35

134:                                              ; preds = %35
  store i32 0, ptr %4, align 4
  br label %135

135:                                              ; preds = %134, %123, %115, %97, %74
  %136 = load i32, ptr %4, align 4
  ret i32 %136
}