; Function Attrs: nounwind uwtable
define hidden noundef i32 @lxb_html_tree_adjust_foreign_attributes(ptr nocapture readnone %0, ptr nocapture noundef %1, ptr nocapture readnone %2) local_unnamed_addr #0 {
  %4 = getelementptr inbounds i8, ptr %1, i64 32
  %5 = load ptr, ptr %4, align 8
  %6 = getelementptr inbounds i8, ptr %5, i64 208
  %7 = load ptr, ptr %6, align 8
  %8 = getelementptr inbounds i8, ptr %5, i64 216
  %9 = load ptr, ptr %8, align 8
  %10 = getelementptr inbounds i8, ptr %1, i64 8
  %11 = load i64, ptr %10, align 8
  %12 = tail call ptr @lxb_dom_attr_data_by_id(ptr noundef %7, i64 noundef %11) #9
  %13 = getelementptr inbounds i8, ptr %12, i64 24
  br label %14

14:                                               ; preds = %3, %57
  %.041 = phi i64 [ 0, %3 ], [ %58, %57 ]
  %15 = getelementptr inbounds [11 x %struct.lxb_html_tree_res_attr_adjust_foreign_t], ptr @lxb_html_tree_res_attr_adjust_foreign_map, i64 0, i64 %.041
  %16 = load i64, ptr %13, align 8
  %17 = getelementptr inbounds i8, ptr %15, i64 24
  %18 = load i64, ptr %17, align 8
  %19 = icmp eq i64 %16, %18
  br i1 %19, label %20, label %57

20:                                               ; preds = %14
  %21 = icmp ult i64 %16, 17
  br i1 %21, label %lexbor_hash_entry_str.exit, label %22

22:                                               ; preds = %20
  %23 = load ptr, ptr %12, align 8
  br label %lexbor_hash_entry_str.exit

lexbor_hash_entry_str.exit:                       ; preds = %20, %22
  %.0.i = phi ptr [ %23, %22 ], [ %12, %20 ]
  %24 = load ptr, ptr %15, align 16
  %25 = tail call zeroext i1 @lexbor_str_data_cmp(ptr noundef %.0.i, ptr noundef %24) #9
  br i1 %25, label %26, label %57

26:                                               ; preds = %lexbor_hash_entry_str.exit
  %27 = getelementptr inbounds i8, ptr %15, i64 32
  %28 = load i64, ptr %27, align 8
  %.not = icmp eq i64 %28, 0
  br i1 %.not, label %53, label %29

29:                                               ; preds = %26
  %30 = tail call ptr @lxb_dom_attr_qualified_name_append(ptr noundef %7, ptr noundef %24, i64 noundef %16) #9
  %31 = icmp eq ptr %30, null
  br i1 %31, label %.loopexit, label %32

32:                                               ; preds = %29
  %33 = getelementptr inbounds i8, ptr %30, i64 40
  %34 = load i64, ptr %33, align 8
  %35 = getelementptr inbounds i8, ptr %1, i64 112
  store i64 %34, ptr %35, align 8
  %36 = xor i64 %28, -1
  %37 = add i64 %16, %36
  %38 = getelementptr inbounds i8, ptr %15, i64 16
  %39 = load ptr, ptr %38, align 8
  %40 = tail call ptr @lxb_dom_attr_local_name_append(ptr noundef %7, ptr noundef %39, i64 noundef %37) #9
  %41 = icmp eq ptr %40, null
  br i1 %41, label %.loopexit, label %42

42:                                               ; preds = %32
  %43 = getelementptr inbounds i8, ptr %40, i64 40
  %44 = load i64, ptr %43, align 8
  store i64 %44, ptr %10, align 8
  %45 = getelementptr inbounds i8, ptr %15, i64 8
  %46 = load ptr, ptr %45, align 8
  %47 = tail call ptr @lxb_ns_prefix_append(ptr noundef %9, ptr noundef %46, i64 noundef %28) #9
  %48 = icmp eq ptr %47, null
  br i1 %48, label %.loopexit, label %49

49:                                               ; preds = %42
  %50 = getelementptr inbounds i8, ptr %47, i64 40
  %51 = load i64, ptr %50, align 8
  %52 = getelementptr inbounds i8, ptr %1, i64 16
  store i64 %51, ptr %52, align 8
  br label %53

53:                                               ; preds = %49, %26
  %54 = getelementptr inbounds i8, ptr %15, i64 40
  %55 = load i64, ptr %54, align 8
  %56 = getelementptr inbounds i8, ptr %1, i64 24
  store i64 %55, ptr %56, align 8
  br label %.loopexit

57:                                               ; preds = %14, %lexbor_hash_entry_str.exit
  %58 = add nuw nsw i64 %.041, 1
  %exitcond.not = icmp eq i64 %58, 11
  br i1 %exitcond.not, label %.loopexit, label %14

.loopexit:                                        ; preds = %57, %42, %32, %29, %53
  %.035 = phi i32 [ 0, %53 ], [ 1, %29 ], [ 1, %32 ], [ 1, %42 ], [ 0, %57 ]
  ret i32 %.035
}